; Function Attrs: mustprogress uwtable
define hidden noundef i32 @_ZN3smt18quantifier_manager11check_modelEP11proto_modelRK7obj_mapINS_5enodeEP3appE(ptr noundef nonnull readonly align 8 captures(none) dereferenceable(13) %0, ptr noundef %1, ptr noundef nonnull align 1 %2) local_unnamed_addr #4 align 2 {
  %4 = load ptr, ptr %0, align 8, !tbaa !82
  %5 = getelementptr inbounds nuw i8, ptr %4, i64 1152
  %6 = load ptr, ptr %5, align 8, !tbaa !580
  %7 = icmp eq ptr %6, null
  br i1 %7, label %_ZN3smt18quantifier_manager3imp11check_modelEP11proto_modelRK7obj_mapINS_5enodeEP3appE.exit, label %_ZNK3smt18quantifier_manager3imp5emptyEv.exit.i

_ZNK3smt18quantifier_manager3imp5emptyEv.exit.i:  ; preds = %3
  %8 = getelementptr inbounds i8, ptr %6, i64 -4
  %9 = load i32, ptr %8, align 4, !tbaa !61
  %10 = icmp eq i32 %9, 0
  br i1 %10, label %_ZN3smt18quantifier_manager3imp11check_modelEP11proto_modelRK7obj_mapINS_5enodeEP3appE.exit, label %11

11:                                               ; preds = %_ZNK3smt18quantifier_manager3imp5emptyEv.exit.i
  %12 = getelementptr inbounds nuw i8, ptr %4, i64 1160
  %13 = load ptr, ptr %12, align 8, !tbaa !85
  %14 = load ptr, ptr %13, align 8, !tbaa !56
  %15 = getelementptr inbounds nuw i8, ptr %14, i64 144
  %16 = load ptr, ptr %15, align 8
  %17 = tail call noundef i32 %16(ptr noundef nonnull align 8 dereferenceable(8) %13, ptr noundef %1, ptr noundef nonnull align 1 %2)
  br label %_ZN3smt18quantifier_manager3imp11check_modelEP11proto_modelRK7obj_mapINS_5enodeEP3appE.exit

_ZN3smt18quantifier_manager3imp11check_modelEP11proto_modelRK7obj_mapINS_5enodeEP3appE.exit: ; preds = %3, %_ZNK3smt18quantifier_manager3imp5emptyEv.exit.i, %11
  %.0.i = phi i32 [ %17, %11 ], [ 0, %_ZNK3smt18quantifier_manager3imp5emptyEv.exit.i ], [ 0, %3 ]
  ret i32 %.0.i
}